target datalayout = "e-m:e-p270:32:32-p271:32:32-p272:64:64-i64:64-i128:128-f80:128-n8:16:32:64-S128"
target triple = "x86_64-pc-linux-gnu"

%struct.reftable_block_source = type { ptr, ptr }
%struct.reftable_block_source_vtable = type { ptr, ptr, ptr, ptr }
%struct.reftable_block = type { ptr, i64, %struct.reftable_block_source }
%struct.reftable_reader = type { ptr, %struct.reftable_block_source, i64, i32, i32, i64, i64, i32, i32, %struct.reftable_reader_offsets, %struct.reftable_reader_offsets, %struct.reftable_reader_offsets, i64 }
%struct.reftable_reader_offsets = type { i32, i64, i64 }

; Function Attrs: nounwind uwtable
define dso_local i64 @block_source_read_block(ptr noundef %0, ptr noundef %1, i64 noundef %2, i32 noundef %3) #0 {
  %5 = alloca ptr, align 8
  %6 = alloca ptr, align 8
  %7 = alloca i64, align 8
  %8 = alloca i32, align 4
  %9 = alloca i64, align 8
  store ptr %0, ptr %5, align 8, !tbaa !4
  store ptr %1, ptr %6, align 8, !tbaa !15
  store i64 %2, ptr %7, align 8, !tbaa !17
  store i32 %3, ptr %8, align 4, !tbaa !19
  call void @llvm.lifetime.start.p0(i64 8, ptr %9) #9
  %10 = load ptr, ptr %5, align 8, !tbaa !4
  %11 = getelementptr inbounds nuw %struct.reftable_block_source, ptr %10, i32 0, i32 0
  %12 = load ptr, ptr %11, align 8, !tbaa !9
  %13 = getelementptr inbounds nuw %struct.reftable_block_source_vtable, ptr %12, i32 0, i32 1
  %14 = load ptr, ptr %13, align 8, !tbaa !21
  %15 = load ptr, ptr %5, align 8, !tbaa !4
  %16 = getelementptr inbounds nuw %struct.reftable_block_source, ptr %15, i32 0, i32 1
  %17 = load ptr, ptr %16, align 8, !tbaa !14
  %18 = load ptr, ptr %6, align 8, !tbaa !15
  %19 = load i64, ptr %7, align 8, !tbaa !17
  %20 = load i32, ptr %8, align 4, !tbaa !19
  %21 = call i64 %14(ptr noundef %17, ptr noundef %18, i64 noundef %19, i32 noundef %20)
  store i64 %21, ptr %9, align 8, !tbaa !17
  %22 = load ptr, ptr %6, align 8, !tbaa !15
  %23 = getelementptr inbounds nuw %struct.reftable_block, ptr %22, i32 0, i32 2
  %24 = load ptr, ptr %5, align 8, !tbaa !4
  call void @llvm.memcpy.p0.p0.i64(ptr align 8 %23, ptr align 8 %24, i64 16, i1 false), !tbaa.struct !22
  %25 = load i64, ptr %9, align 8, !tbaa !17
  call void @llvm.lifetime.end.p0(i64 8, ptr %9) #9
  ret i64 %25
}

; Function Attrs: nounwind uwtable
define internal i32 @extract_block_size(ptr noundef %0, ptr noundef %1, i64 noundef %2, i32 noundef %3) #0 {
  %5 = alloca ptr, align 8
  %6 = alloca ptr, align 8
  %7 = alloca i64, align 8
  %8 = alloca i32, align 4
  %9 = alloca i32, align 4
  store ptr %0, ptr %5, align 8, !tbaa !41
  store ptr %1, ptr %6, align 8, !tbaa !41
  store i64 %2, ptr %7, align 8, !tbaa !17
  store i32 %3, ptr %8, align 4, !tbaa !19
  call void @llvm.lifetime.start.p0(i64 4, ptr %9) #9
  store i32 0, ptr %9, align 4, !tbaa !19
  %10 = load i64, ptr %7, align 8, !tbaa !17
  %11 = icmp eq i64 %10, 0
  br i1 %11, label %12, label %17

12:                                               ; preds = %4
  %13 = load i32, ptr %8, align 4, !tbaa !19
  %14 = call i64 @header_size(i32 noundef %13)
  %15 = load ptr, ptr %5, align 8, !tbaa !41
  %16 = getelementptr inbounds nuw i8, ptr %15, i64 %14
  store ptr %16, ptr %5, align 8, !tbaa !41
  br label %17

17:                                               ; preds = %12, %4
  %18 = load ptr, ptr %5, align 8, !tbaa !41
  %19 = getelementptr inbounds i8, ptr %18, i64 0
  %20 = load i8, ptr %19, align 1, !tbaa !35
  %21 = load ptr, ptr %6, align 8, !tbaa !41
  store i8 %20, ptr %21, align 1, !tbaa !35
  %22 = load ptr, ptr %6, align 8, !tbaa !41
  %23 = load i8, ptr %22, align 1, !tbaa !35
  %24 = call i32 @reftable_is_block_type(i8 noundef zeroext %23)
  %25 = icmp ne i32 %24, 0
  br i1 %25, label %26, label %30

26:                                               ; preds = %17
  %27 = load ptr, ptr %5, align 8, !tbaa !41
  %28 = getelementptr inbounds i8, ptr %27, i64 1
  %29 = call i32 @get_be24(ptr noundef %28)
  store i32 %29, ptr %9, align 4, !tbaa !19
  br label %30

30:                                               ; preds = %26, %17
  %31 = load i32, ptr %9, align 4, !tbaa !19
  call void @llvm.lifetime.end.p0(i64 4, ptr %9) #9
  ret i32 %31
}

; Function Attrs: nounwind uwtable
define internal i32 @reader_get_block(ptr noundef %0, ptr noundef %1, i64 noundef %2, i32 noundef %3) #0 {
  %5 = alloca i32, align 4
  %6 = alloca ptr, align 8
  %7 = alloca ptr, align 8
  %8 = alloca i64, align 8
  %9 = alloca i32, align 4
  %10 = alloca i64, align 8
  %11 = alloca i32, align 4
  store ptr %0, ptr %6, align 8, !tbaa !26
  store ptr %1, ptr %7, align 8, !tbaa !15
  store i64 %2, ptr %8, align 8, !tbaa !17
  store i32 %3, ptr %9, align 4, !tbaa !19
  call void @llvm.lifetime.start.p0(i64 8, ptr %10) #9
  %12 = load i64, ptr %8, align 8, !tbaa !17
  %13 = load ptr, ptr %6, align 8, !tbaa !26
  %14 = getelementptr inbounds nuw %struct.reftable_reader, ptr %13, i32 0, i32 2
  %15 = load i64, ptr %14, align 8, !tbaa !38
  %16 = icmp uge i64 %12, %15
  br i1 %16, label %17, label %18

17:                                               ; preds = %4
  store i32 0, ptr %5, align 4
  store i32 1, ptr %11, align 4
  br label %47

18:                                               ; preds = %4
  %19 = load i64, ptr %8, align 8, !tbaa !17
  %20 = load i32, ptr %9, align 4, !tbaa !19
  %21 = zext i32 %20 to i64
  %22 = add i64 %19, %21
  %23 = load ptr, ptr %6, align 8, !tbaa !26
  %24 = getelementptr inbounds nuw %struct.reftable_reader, ptr %23, i32 0, i32 2
  %25 = load i64, ptr %24, align 8, !tbaa !38
  %26 = icmp ugt i64 %22, %25
  br i1 %26, label %27, label %34

27:                                               ; preds = %18
  %28 = load ptr, ptr %6, align 8, !tbaa !26
  %29 = getelementptr inbounds nuw %struct.reftable_reader, ptr %28, i32 0, i32 2
  %30 = load i64, ptr %29, align 8, !tbaa !38
  %31 = load i64, ptr %8, align 8, !tbaa !17
  %32 = sub i64 %30, %31
  %33 = trunc i64 %32 to i32
  store i32 %33, ptr %9, align 4, !tbaa !19
  br label %34

34:                                               ; preds = %27, %18
  %35 = load ptr, ptr %6, align 8, !tbaa !26
  %36 = getelementptr inbounds nuw %struct.reftable_reader, ptr %35, i32 0, i32 1
  %37 = load ptr, ptr %7, align 8, !tbaa !15
  %38 = load i64, ptr %8, align 8, !tbaa !17
  %39 = load i32, ptr %9, align 4, !tbaa !19
  %40 = call i64 @block_source_read_block(ptr noundef %36, ptr noundef %37, i64 noundef %38, i32 noundef %39)
  store i64 %40, ptr %10, align 8, !tbaa !17
  %41 = load i64, ptr %10, align 8, !tbaa !17
  %42 = icmp slt i64 %41, 0
  br i1 %42, label %43, label %46

43:                                               ; preds = %34
  %44 = load i64, ptr %10, align 8, !tbaa !17
  %45 = trunc i64 %44 to i32
  store i32 %45, ptr %5, align 4
  store i32 1, ptr %11, align 4
  br label %47

46:                                               ; preds = %34
  store i32 0, ptr %5, align 4
  store i32 1, ptr %11, align 4
  br label %47

47:                                               ; preds = %46, %43, %17
  call void @llvm.lifetime.end.p0(i64 8, ptr %10) #9
  %48 = load i32, ptr %5, align 4
  ret i32 %48
}

; Function Attrs: nounwind uwtable
define dso_local i32 @reader_init_block_reader(ptr noundef %0, ptr noundef %1, i64 noundef %2, i8 noundef zeroext %3) #0 {
  %5 = alloca i32, align 4
  %6 = alloca ptr, align 8
  %7 = alloca ptr, align 8
  %8 = alloca i64, align 8
  %9 = alloca i8, align 1
  %10 = alloca i32, align 4
  %11 = alloca %struct.reftable_block, align 8
  %12 = alloca i8, align 1
  %13 = alloca i32, align 4
  %14 = alloca i32, align 4
  %15 = alloca i32, align 4
  %16 = alloca i32, align 4
  store ptr %0, ptr %6, align 8, !tbaa !26
  store ptr %1, ptr %7, align 8, !tbaa !33
  store i64 %2, ptr %8, align 8, !tbaa !17
  store i8 %3, ptr %9, align 1, !tbaa !35
  call void @llvm.lifetime.start.p0(i64 4, ptr %10) #9
  %17 = load ptr, ptr %6, align 8, !tbaa !26
  %18 = getelementptr inbounds nuw %struct.reftable_reader, ptr %17, i32 0, i32 4
  %19 = load i32, ptr %18, align 4, !tbaa !36
  %20 = icmp ne i32 %19, 0
  br i1 %20, label %21, label %25

21:                                               ; preds = %4
  %22 = load ptr, ptr %6, align 8, !tbaa !26
  %23 = getelementptr inbounds nuw %struct.reftable_reader, ptr %22, i32 0, i32 4
  %24 = load i32, ptr %23, align 4, !tbaa !36
  br label %26

25:                                               ; preds = %4
  br label %26

26:                                               ; preds = %25, %21
  %27 = phi i32 [ %24, %21 ], [ 4096, %25 ]
  store i32 %27, ptr %10, align 4, !tbaa !19
  call void @llvm.lifetime.start.p0(i64 32, ptr %11) #9
  call void @llvm.memset.p0.i64(ptr align 8 %11, i8 0, i64 32, i1 false)
  call void @llvm.lifetime.start.p0(i64 1, ptr %12) #9
  store i8 0, ptr %12, align 1, !tbaa !35
  call void @llvm.lifetime.start.p0(i64 4, ptr %13) #9
  store i32 0, ptr %13, align 4, !tbaa !19
  call void @llvm.lifetime.start.p0(i64 4, ptr %14) #9
  %28 = load i64, ptr %8, align 8, !tbaa !17
  %29 = icmp ne i64 %28, 0
  br i1 %29, label %30, label %31

30:                                               ; preds = %26
  br label %36

31:                                               ; preds = %26
  %32 = load ptr, ptr %6, align 8, !tbaa !26
  %33 = getelementptr inbounds nuw %struct.reftable_reader, ptr %32, i32 0, i32 8
  %34 = load i32, ptr %33, align 4, !tbaa !37
  %35 = call i64 @header_size(i32 noundef %34)
  br label %36

36:                                               ; preds = %31, %30
  %37 = phi i64 [ 0, %30 ], [ %35, %31 ]
  %38 = trunc i64 %37 to i32
  store i32 %38, ptr %14, align 4, !tbaa !19
  call void @llvm.lifetime.start.p0(i64 4, ptr %15) #9
  store i32 0, ptr %15, align 4, !tbaa !19
  %39 = load i64, ptr %8, align 8, !tbaa !17
  %40 = load ptr, ptr %6, align 8, !tbaa !26
  %41 = getelementptr inbounds nuw %struct.reftable_reader, ptr %40, i32 0, i32 2
  %42 = load i64, ptr %41, align 8, !tbaa !38
  %43 = icmp uge i64 %39, %42
  br i1 %43, label %44, label %45

44:                                               ; preds = %36
  store i32 1, ptr %5, align 4
  store i32 1, ptr %16, align 4
  br label %102

45:                                               ; preds = %36
  %46 = load ptr, ptr %6, align 8, !tbaa !26
  %47 = load i64, ptr %8, align 8, !tbaa !17
  %48 = load i32, ptr %10, align 4, !tbaa !19
  %49 = call i32 @reader_get_block(ptr noundef %46, ptr noundef %11, i64 noundef %47, i32 noundef %48)
  store i32 %49, ptr %13, align 4, !tbaa !19
  %50 = load i32, ptr %13, align 4, !tbaa !19
  %51 = icmp slt i32 %50, 0
  br i1 %51, label %52, label %53

52:                                               ; preds = %45
  br label %100

53:                                               ; preds = %45
  %54 = getelementptr inbounds nuw %struct.reftable_block, ptr %11, i32 0, i32 0
  %55 = load ptr, ptr %54, align 8, !tbaa !39
  %56 = load i64, ptr %8, align 8, !tbaa !17
  %57 = load ptr, ptr %6, align 8, !tbaa !26
  %58 = getelementptr inbounds nuw %struct.reftable_reader, ptr %57, i32 0, i32 8
  %59 = load i32, ptr %58, align 4, !tbaa !37
  %60 = call i32 @extract_block_size(ptr noundef %55, ptr noundef %12, i64 noundef %56, i32 noundef %59)
  store i32 %60, ptr %15, align 4, !tbaa !19
  %61 = load i32, ptr %15, align 4, !tbaa !19
  %62 = icmp slt i32 %61, 0
  br i1 %62, label %63, label %65

63:                                               ; preds = %53
  %64 = load i32, ptr %15, align 4, !tbaa !19
  store i32 %64, ptr %13, align 4, !tbaa !19
  br label %100

65:                                               ; preds = %53
  %66 = load i8, ptr %9, align 1, !tbaa !35
  %67 = zext i8 %66 to i32
  %68 = icmp ne i32 %67, 0
  br i1 %68, label %69, label %76

69:                                               ; preds = %65
  %70 = load i8, ptr %12, align 1, !tbaa !35
  %71 = zext i8 %70 to i32
  %72 = load i8, ptr %9, align 1, !tbaa !35
  %73 = zext i8 %72 to i32
  %74 = icmp ne i32 %71, %73
  br i1 %74, label %75, label %76

75:                                               ; preds = %69
  store i32 1, ptr %13, align 4, !tbaa !19
  br label %100

76:                                               ; preds = %69, %65
  %77 = load i32, ptr %15, align 4, !tbaa !19
  %78 = load i32, ptr %10, align 4, !tbaa !19
  %79 = icmp sgt i32 %77, %78
  br i1 %79, label %80, label %89

80:                                               ; preds = %76
  call void @reftable_block_done(ptr noundef %11)
  %81 = load ptr, ptr %6, align 8, !tbaa !26
  %82 = load i64, ptr %8, align 8, !tbaa !17
  %83 = load i32, ptr %15, align 4, !tbaa !19
  %84 = call i32 @reader_get_block(ptr noundef %81, ptr noundef %11, i64 noundef %82, i32 noundef %83)
  store i32 %84, ptr %13, align 4, !tbaa !19
  %85 = load i32, ptr %13, align 4, !tbaa !19
  %86 = icmp slt i32 %85, 0
  br i1 %86, label %87, label %88

87:                                               ; preds = %80
  br label %100

88:                                               ; preds = %80
  br label %89

89:                                               ; preds = %88, %76
  %90 = load ptr, ptr %7, align 8, !tbaa !33
  %91 = load i32, ptr %14, align 4, !tbaa !19
  %92 = load ptr, ptr %6, align 8, !tbaa !26
  %93 = getelementptr inbounds nuw %struct.reftable_reader, ptr %92, i32 0, i32 4
  %94 = load i32, ptr %93, align 4, !tbaa !36
  %95 = load ptr, ptr %6, align 8, !tbaa !26
  %96 = getelementptr inbounds nuw %struct.reftable_reader, ptr %95, i32 0, i32 3
  %97 = load i32, ptr %96, align 8, !tbaa !28
  %98 = call i32 @hash_size(i32 noundef %97)
  %99 = call i32 @block_reader_init(ptr noundef %90, ptr noundef %11, i32 noundef %91, i32 noundef %94, i32 noundef %98)
  store i32 %99, ptr %13, align 4, !tbaa !19
  br label %100

100:                                              ; preds = %89, %87, %75, %63, %52
  call void @reftable_block_done(ptr noundef %11)
  %101 = load i32, ptr %13, align 4, !tbaa !19
  store i32 %101, ptr %5, align 4
  store i32 1, ptr %16, align 4
  br label %102

102:                                              ; preds = %100, %44
  call void @llvm.lifetime.end.p0(i64 4, ptr %15) #9
  call void @llvm.lifetime.end.p0(i64 4, ptr %14) #9
  call void @llvm.lifetime.end.p0(i64 4, ptr %13) #9
  call void @llvm.lifetime.end.p0(i64 1, ptr %12) #9
  call void @llvm.lifetime.end.p0(i64 32, ptr %11) #9
  call void @llvm.lifetime.end.p0(i64 4, ptr %10) #9
  %103 = load i32, ptr %5, align 4
  ret i32 %103
}