; Function Attrs: nounwind uwtable
define dso_local i32 @reader_init_block_reader(ptr noundef readonly captures(none) %0, ptr noundef %1, i64 noundef %2, i8 noundef zeroext %3) local_unnamed_addr #0 {
  %5 = alloca %struct.reftable_block, align 8
  %6 = getelementptr inbounds nuw i8, ptr %0, i64 36
  %7 = load i32, ptr %6, align 4, !tbaa !25
  %.not = icmp eq i32 %7, 0
  %spec.select = select i1 %.not, i32 4096, i32 %7
  call void @llvm.lifetime.start.p0(i64 32, ptr nonnull %5) #12
  call void @llvm.memset.p0.i64(ptr noundef nonnull align 8 dereferenceable(32) %5, i8 0, i64 32, i1 false)
  %.not34 = icmp eq i64 %2, 0
  br i1 %.not34, label %8, label %13

8:                                                ; preds = %4
  %9 = getelementptr inbounds nuw i8, ptr %0, i64 60
  %10 = load i32, ptr %9, align 4, !tbaa !26
  %11 = tail call i64 @header_size(i32 noundef %10) #12
  %12 = trunc i64 %11 to i32
  br label %13

13:                                               ; preds = %4, %8
  %14 = phi i32 [ %12, %8 ], [ 0, %4 ]
  %15 = getelementptr inbounds nuw i8, ptr %0, i64 24
  %16 = load i64, ptr %15, align 8, !tbaa !27
  %.not35 = icmp ult i64 %2, %16
  br i1 %.not35, label %reader_get_block.exit, label %65

reader_get_block.exit:                            ; preds = %13
  %17 = zext i32 %spec.select to i64
  %18 = add i64 %2, %17
  %19 = icmp ugt i64 %18, %16
  %20 = sub nuw i64 %16, %2
  %21 = trunc i64 %20 to i32
  %.013.i = select i1 %19, i32 %21, i32 %spec.select
  %22 = getelementptr inbounds nuw i8, ptr %0, i64 8
  %23 = load ptr, ptr %22, align 8, !tbaa !4
  %24 = getelementptr inbounds nuw i8, ptr %23, i64 8
  %25 = load ptr, ptr %24, align 8, !tbaa !13
  %26 = getelementptr inbounds nuw i8, ptr %0, i64 16
  %27 = load ptr, ptr %26, align 8, !tbaa !12
  %28 = call i64 %25(ptr noundef %27, ptr noundef nonnull %5, i64 noundef %2, i32 noundef %.013.i) #12
  %29 = getelementptr inbounds nuw i8, ptr %5, i64 16
  call void @llvm.memcpy.p0.p0.i64(ptr noundef nonnull align 8 dereferenceable(16) %29, ptr noundef nonnull readonly align 8 dereferenceable(16) %22, i64 16, i1 false), !tbaa.struct !14
  %spec.select17.i = call i64 @llvm.smin.i64(i64 %28, i64 0)
  %spec.select.i = trunc i64 %spec.select17.i to i32
  %30 = icmp slt i32 %spec.select.i, 0
  br i1 %30, label %64, label %31

31:                                               ; preds = %reader_get_block.exit
  %32 = load ptr, ptr %5, align 8, !tbaa !28
  br i1 %.not34, label %33, label %38

33:                                               ; preds = %31
  %34 = getelementptr inbounds nuw i8, ptr %0, i64 60
  %35 = load i32, ptr %34, align 4, !tbaa !26
  %36 = call i64 @header_size(i32 noundef %35) #12
  %37 = getelementptr inbounds nuw i8, ptr %32, i64 %36
  br label %38

38:                                               ; preds = %33, %31
  %.07.i = phi ptr [ %37, %33 ], [ %32, %31 ]
  %39 = load i8, ptr %.07.i, align 1, !tbaa !30
  %40 = call i32 @reftable_is_block_type(i8 noundef zeroext %39) #12
  %.not.i38 = icmp eq i32 %40, 0
  br i1 %.not.i38, label %extract_block_size.exit.thread, label %extract_block_size.exit

extract_block_size.exit:                          ; preds = %38
  %41 = getelementptr inbounds nuw i8, ptr %.07.i, i64 1
  %42 = call i32 @get_be24(ptr noundef nonnull %41) #12
  %43 = icmp slt i32 %42, 0
  br i1 %43, label %64, label %extract_block_size.exit.thread

extract_block_size.exit.thread:                   ; preds = %38, %extract_block_size.exit
  %.0.i3947 = phi i32 [ %42, %extract_block_size.exit ], [ 0, %38 ]
  %.not36 = icmp eq i8 %3, 0
  %.not37 = icmp eq i8 %39, %3
  %or.cond = or i1 %.not36, %.not37
  br i1 %or.cond, label %44, label %64

44:                                               ; preds = %extract_block_size.exit.thread
  %45 = icmp sgt i32 %.0.i3947, %spec.select
  br i1 %45, label %46, label %reader_get_block.exit45.thread

46:                                               ; preds = %44
  call void @reftable_block_done(ptr noundef nonnull %5) #12
  %47 = load i64, ptr %15, align 8, !tbaa !27
  %.not.i40 = icmp ult i64 %2, %47
  br i1 %.not.i40, label %reader_get_block.exit45, label %reader_get_block.exit45.thread

reader_get_block.exit45:                          ; preds = %46
  %48 = zext nneg i32 %.0.i3947 to i64
  %49 = add i64 %2, %48
  %50 = icmp ugt i64 %49, %47
  %51 = sub nuw i64 %47, %2
  %52 = trunc i64 %51 to i32
  %.013.i42 = select i1 %50, i32 %52, i32 %.0.i3947
  %53 = load ptr, ptr %22, align 8, !tbaa !4
  %54 = getelementptr inbounds nuw i8, ptr %53, i64 8
  %55 = load ptr, ptr %54, align 8, !tbaa !13
  %56 = load ptr, ptr %26, align 8, !tbaa !12
  %57 = call i64 %55(ptr noundef %56, ptr noundef nonnull %5, i64 noundef %2, i32 noundef %.013.i42) #12
  call void @llvm.memcpy.p0.p0.i64(ptr noundef nonnull align 8 dereferenceable(16) %29, ptr noundef nonnull readonly align 8 dereferenceable(16) %22, i64 16, i1 false), !tbaa.struct !14
  %spec.select17.i43 = call i64 @llvm.smin.i64(i64 %57, i64 0)
  %spec.select.i44 = trunc i64 %spec.select17.i43 to i32
  %58 = icmp slt i32 %spec.select.i44, 0
  br i1 %58, label %64, label %reader_get_block.exit45.thread

reader_get_block.exit45.thread:                   ; preds = %46, %reader_get_block.exit45, %44
  %59 = load i32, ptr %6, align 4, !tbaa !25
  %60 = getelementptr inbounds nuw i8, ptr %0, i64 32
  %61 = load i32, ptr %60, align 8, !tbaa !18
  %62 = call i32 @hash_size(i32 noundef %61) #12
  %63 = call i32 @block_reader_init(ptr noundef %1, ptr noundef nonnull %5, i32 noundef %14, i32 noundef %59, i32 noundef %62) #12
  br label %64

64:                                               ; preds = %extract_block_size.exit.thread, %extract_block_size.exit, %reader_get_block.exit45, %reader_get_block.exit, %reader_get_block.exit45.thread
  %.027 = phi i32 [ %spec.select.i, %reader_get_block.exit ], [ %spec.select.i44, %reader_get_block.exit45 ], [ %63, %reader_get_block.exit45.thread ], [ %42, %extract_block_size.exit ], [ 1, %extract_block_size.exit.thread ]
  call void @reftable_block_done(ptr noundef nonnull %5) #12
  br label %65

65:                                               ; preds = %13, %64
  %.0 = phi i32 [ %.027, %64 ], [ 1, %13 ]
  call void @llvm.lifetime.end.p0(i64 32, ptr nonnull %5) #12
  ret i32 %.0
}